; Function Attrs: mustprogress uwtable
define internal noundef ptr @_ZN3tbb6detail2d227forward_block_handling_taskIN32pxrInternal_v0_24__pxrReserved__22UsdPrimSubtreeIteratorEZZNS3_12_GLOBAL__N_137_TargetingPropertyDependencyCollector4_RunERKNS3_8TfRefPtrINS3_8UsdStageEEEENKUlvE_clEvEUlRKNS3_7UsdPrimEE_SD_E7executeERNS0_2d114execution_dataE(ptr noundef nonnull align 64 dereferenceable(624) %0, ptr noundef nonnull align 8 dereferenceable(12) %1) unnamed_addr #0 align 2 {
  %3 = getelementptr inbounds nuw i8, ptr %0, i64 576
  %4 = load i64, ptr %3, align 64
  %5 = icmp ugt i64 %4, 1
  br i1 %5, label %.lr.ph, label %._crit_edge

.lr.ph:                                           ; preds = %2
  %6 = getelementptr inbounds nuw i8, ptr %0, i64 592
  %7 = getelementptr inbounds nuw i8, ptr %0, i64 584
  %8 = ptrtoint ptr %7 to i64
  %9 = getelementptr inbounds nuw i8, ptr %0, i64 64
  %10 = getelementptr inbounds nuw i8, ptr %0, i64 608
  br label %11

11:                                               ; preds = %.lr.ph, %_ZN3tbb6detail2d112wait_context7reserveEj.exit
  %.06 = phi i64 [ 1, %.lr.ph ], [ %16, %_ZN3tbb6detail2d112wait_context7reserveEj.exit ]
  %12 = atomicrmw add ptr %6, i64 1 seq_cst, align 8
  %.not.i.i = icmp eq i64 %12, -1
  br i1 %.not.i.i, label %13, label %_ZN3tbb6detail2d112wait_context7reserveEj.exit

13:                                               ; preds = %11
  tail call void @_ZN3tbb6detail2r114notify_waitersEm(i64 noundef %8)
  br label %_ZN3tbb6detail2d112wait_context7reserveEj.exit

_ZN3tbb6detail2d112wait_context7reserveEj.exit:   ; preds = %11, %13
  %14 = getelementptr inbounds %"struct.tbb::detail::d2::for_each_iteration_task", ptr %9, i64 %.06
  %15 = load ptr, ptr %10, align 32
  tail call void @_ZN3tbb6detail2r15spawnERNS0_2d14taskERNS2_18task_group_contextE(ptr noundef nonnull align 64 dereferenceable(64) %14, ptr noundef nonnull align 8 dereferenceable(128) %15)
  %16 = add nuw i64 %.06, 1
  %17 = load i64, ptr %3, align 64
  %18 = icmp ult i64 %16, %17
  br i1 %18, label %11, label %._crit_edge, !llvm.loop !128

._crit_edge:                                      ; preds = %_ZN3tbb6detail2d112wait_context7reserveEj.exit, %2
  %19 = getelementptr inbounds nuw i8, ptr %0, i64 584
  %20 = getelementptr inbounds nuw i8, ptr %0, i64 592
  %21 = atomicrmw add ptr %20, i64 1 seq_cst, align 8
  %.not.i.i4 = icmp eq i64 %21, -1
  br i1 %.not.i.i4, label %22, label %_ZN3tbb6detail2d112wait_context7reserveEj.exit5

22:                                               ; preds = %._crit_edge
  %23 = ptrtoint ptr %19 to i64
  tail call void @_ZN3tbb6detail2r114notify_waitersEm(i64 noundef %23)
  br label %_ZN3tbb6detail2d112wait_context7reserveEj.exit5

_ZN3tbb6detail2d112wait_context7reserveEj.exit5:  ; preds = %._crit_edge, %22
  %24 = getelementptr inbounds nuw i8, ptr %0, i64 64
  %25 = getelementptr inbounds nuw i8, ptr %0, i64 608
  %26 = load ptr, ptr %25, align 32
  tail call void @_ZN3tbb6detail2r116execute_and_waitERNS0_2d14taskERNS2_18task_group_contextERNS2_12wait_contextES6_(ptr noundef nonnull align 64 dereferenceable(64) %24, ptr noundef nonnull align 8 dereferenceable(128) %26, ptr noundef nonnull align 8 dereferenceable(16) %19, ptr noundef nonnull align 8 dereferenceable(128) %26)
  %27 = getelementptr inbounds nuw i8, ptr %0, i64 600
  %28 = load ptr, ptr %27, align 8
  %29 = getelementptr inbounds nuw i8, ptr %28, i64 8
  %30 = atomicrmw add ptr %29, i64 -1 seq_cst, align 8
  %.not.i.i.i = icmp eq i64 %30, 1
  br i1 %.not.i.i.i, label %31, label %_ZN3tbb6detail2d227forward_block_handling_taskIN32pxrInternal_v0_24__pxrReserved__22UsdPrimSubtreeIteratorEZZNS3_12_GLOBAL__N_137_TargetingPropertyDependencyCollector4_RunERKNS3_8TfRefPtrINS3_8UsdStageEEEENKUlvE_clEvEUlRKNS3_7UsdPrimEE_SD_E8finalizeERKNS0_2d114execution_dataE.exit

31:                                               ; preds = %_ZN3tbb6detail2d112wait_context7reserveEj.exit5
  %32 = ptrtoint ptr %28 to i64
  tail call void @_ZN3tbb6detail2r114notify_waitersEm(i64 noundef %32)
  br label %_ZN3tbb6detail2d227forward_block_handling_taskIN32pxrInternal_v0_24__pxrReserved__22UsdPrimSubtreeIteratorEZZNS3_12_GLOBAL__N_137_TargetingPropertyDependencyCollector4_RunERKNS3_8TfRefPtrINS3_8UsdStageEEEENKUlvE_clEvEUlRKNS3_7UsdPrimEE_SD_E8finalizeERKNS0_2d114execution_dataE.exit

_ZN3tbb6detail2d227forward_block_handling_taskIN32pxrInternal_v0_24__pxrReserved__22UsdPrimSubtreeIteratorEZZNS3_12_GLOBAL__N_137_TargetingPropertyDependencyCollector4_RunERKNS3_8TfRefPtrINS3_8UsdStageEEEENKUlvE_clEvEUlRKNS3_7UsdPrimEE_SD_E8finalizeERKNS0_2d114execution_dataE.exit: ; preds = %_ZN3tbb6detail2d112wait_context7reserveEj.exit5, %31
  %33 = getelementptr inbounds nuw i8, ptr %0, i64 616
  %.val.i = load i64, ptr %33, align 8
  %34 = inttoptr i64 %.val.i to ptr
  %35 = load ptr, ptr %0, align 64
  %36 = load ptr, ptr %35, align 8
  tail call void %36(ptr noundef nonnull align 64 dereferenceable(624) %0) #13
  tail call void @_ZN3tbb6detail2r110deallocateERNS0_2d117small_object_poolEPvmRKNS2_14execution_dataE(ptr noundef nonnull align 1 dereferenceable(1) %34, ptr noundef nonnull align 64 dereferenceable(624) %0, i64 noundef 640, ptr noundef nonnull align 8 dereferenceable(12) %1)
  ret ptr null
}